target datalayout = "e-m:e-p270:32:32-p271:32:32-p272:64:64-i64:64-i128:128-f80:128-n8:16:32:64-S128"
target triple = "x86_64-pc-linux-gnu"

%struct.FunctionCallInfoBaseData = type { ptr, ptr, ptr, i32, i8, i16, [0 x %struct.NullableDatum] }
%struct.NullableDatum = type { i64, i8 }
%struct.PgBackendStatus = type { i32, i32, i32, i64, i64, i64, i64, i32, i32, %struct.SockAddr, ptr, i8, ptr, i8, ptr, i32, ptr, ptr, i32, i32, [20 x i64], i64 }
%struct.SockAddr = type { %struct.sockaddr_storage, i32 }
%struct.sockaddr_storage = type { i16, [118 x i8], i64 }
%struct.PGPROC = type { %struct.dlist_node, ptr, ptr, i32, %struct.Latch, i32, i32, i32, i32, %struct.anon, i32, i32, i32, i8, i8, i8, i8, %struct.proclist_node, %struct.proclist_node, ptr, ptr, i32, i32, %struct.pg_atomic_uint64, i32, i8, i64, i32, %struct.dlist_node, [16 x %struct.dlist_head], %struct.XidCacheStatus, %struct.XidCache, i8, %struct.pg_atomic_uint32, i32, i32, i8, %struct.pg_atomic_uint32, i32, i32, i64, i64, %struct.LWLock, ptr, ptr, i8, i32, ptr, %struct.dlist_head, %struct.dlist_node }
%struct.Latch = type { i32, i32, i8, i32 }
%struct.anon = type { i32, i32 }
%struct.proclist_node = type { i32, i32 }
%struct.pg_atomic_uint64 = type { i64 }
%struct.XidCacheStatus = type { i8, i8 }
%struct.XidCache = type { [64 x i32] }
%struct.pg_atomic_uint32 = type { i32 }
%struct.LWLock = type { i16, %struct.pg_atomic_uint32, %struct.proclist_head }
%struct.proclist_head = type { i32, i32 }
%struct.dlist_head = type { %struct.dlist_node }
%struct.dlist_node = type { ptr, ptr }
%struct.PgStat_BktypeIO = type { [3 x [5 x [8 x i64]]], [3 x [5 x [8 x i64]]], [3 x [5 x [8 x i64]]] }
%struct.PROC_HDR = type { ptr, ptr, ptr, ptr, i32, %struct.dlist_head, %struct.dlist_head, %struct.dlist_head, %struct.dlist_head, %struct.pg_atomic_uint32, %struct.pg_atomic_uint32, i32, i32, i32, i32 }
%struct.PgStat_Backend = type { i64, %struct.PgStat_BktypeIO }

@ProcGlobal = external global ptr, align 8

; Function Attrs: inlinehint nounwind uwtable
define internal i32 @DatumGetInt32(i64 noundef %0) #2 {
  %2 = alloca i64, align 8
  store i64 %0, ptr %2, align 8
  %3 = load i64, ptr %2, align 8
  %4 = trunc i64 %3 to i32
  ret i32 %4
}

; Function Attrs: nounwind uwtable
define dso_local i64 @pg_stat_get_backend_io(ptr noundef %0) #0 {
  %2 = alloca i64, align 8
  %3 = alloca ptr, align 8
  %4 = alloca ptr, align 8
  %5 = alloca i32, align 4
  %6 = alloca i32, align 4
  %7 = alloca ptr, align 8
  %8 = alloca i32, align 4
  %9 = alloca ptr, align 8
  %10 = alloca ptr, align 8
  %11 = alloca ptr, align 8
  %12 = alloca i32, align 4
  store ptr %0, ptr %3, align 8
  call void @llvm.lifetime.start.p0(i64 8, ptr %4) #10
  call void @llvm.lifetime.start.p0(i64 4, ptr %5) #10
  call void @llvm.lifetime.start.p0(i64 4, ptr %6) #10
  call void @llvm.lifetime.start.p0(i64 8, ptr %7) #10
  call void @llvm.lifetime.start.p0(i64 4, ptr %8) #10
  call void @llvm.lifetime.start.p0(i64 8, ptr %9) #10
  call void @llvm.lifetime.start.p0(i64 8, ptr %10) #10
  call void @llvm.lifetime.start.p0(i64 8, ptr %11) #10
  %13 = load ptr, ptr %3, align 8
  call void @InitMaterializedSRF(ptr noundef %13, i32 noundef 0)
  %14 = load ptr, ptr %3, align 8
  %15 = getelementptr inbounds nuw %struct.FunctionCallInfoBaseData, ptr %14, i32 0, i32 2
  %16 = load ptr, ptr %15, align 8
  store ptr %16, ptr %4, align 8
  %17 = load ptr, ptr %3, align 8
  %18 = getelementptr inbounds nuw %struct.FunctionCallInfoBaseData, ptr %17, i32 0, i32 6
  %19 = getelementptr inbounds [0 x %struct.NullableDatum], ptr %18, i64 0, i64 0
  %20 = getelementptr inbounds nuw %struct.NullableDatum, ptr %19, i32 0, i32 0
  %21 = load i64, ptr %20, align 8
  %22 = call i32 @DatumGetInt32(i64 noundef %21)
  store i32 %22, ptr %6, align 4
  %23 = load i32, ptr %6, align 4
  %24 = call ptr @BackendPidGetProc(i32 noundef %23)
  store ptr %24, ptr %7, align 8
  %25 = load ptr, ptr %7, align 8
  %26 = icmp ne ptr %25, null
  br i1 %26, label %28, label %27

27:                                               ; preds = %1
  store i64 0, ptr %2, align 8
  store i32 1, ptr %12, align 4
  br label %73

28:                                               ; preds = %1
  %29 = load ptr, ptr %7, align 8
  %30 = load ptr, ptr @ProcGlobal, align 8
  %31 = getelementptr inbounds nuw %struct.PROC_HDR, ptr %30, i32 0, i32 0
  %32 = load ptr, ptr %31, align 8
  %33 = getelementptr inbounds %struct.PGPROC, ptr %32, i64 0
  %34 = ptrtoint ptr %29 to i64
  %35 = ptrtoint ptr %33 to i64
  %36 = sub i64 %34, %35
  %37 = sdiv exact i64 %36, 832
  %38 = trunc i64 %37 to i32
  store i32 %38, ptr %8, align 4
  %39 = load i32, ptr %8, align 4
  %40 = call ptr @pgstat_get_beentry_by_proc_number(i32 noundef %39)
  store ptr %40, ptr %11, align 8
  %41 = load ptr, ptr %11, align 8
  %42 = icmp ne ptr %41, null
  br i1 %42, label %44, label %43

43:                                               ; preds = %28
  store i64 0, ptr %2, align 8
  store i32 1, ptr %12, align 4
  br label %73

44:                                               ; preds = %28
  %45 = load i32, ptr %8, align 4
  %46 = call ptr @pgstat_fetch_stat_backend(i32 noundef %45)
  store ptr %46, ptr %9, align 8
  %47 = load ptr, ptr %9, align 8
  %48 = icmp ne ptr %47, null
  br i1 %48, label %50, label %49

49:                                               ; preds = %44
  store i64 0, ptr %2, align 8
  store i32 1, ptr %12, align 4
  br label %73

50:                                               ; preds = %44
  %51 = load ptr, ptr %11, align 8
  %52 = getelementptr inbounds nuw %struct.PgBackendStatus, ptr %51, i32 0, i32 2
  %53 = load i32, ptr %52, align 8
  store i32 %53, ptr %5, align 4
  %54 = load ptr, ptr %11, align 8
  %55 = getelementptr inbounds nuw %struct.PgBackendStatus, ptr %54, i32 0, i32 1
  %56 = load i32, ptr %55, align 4
  %57 = load i32, ptr %6, align 4
  %58 = icmp ne i32 %56, %57
  br i1 %58, label %59, label %60

59:                                               ; preds = %50
  store i64 0, ptr %2, align 8
  store i32 1, ptr %12, align 4
  br label %73

60:                                               ; preds = %50
  %61 = load i32, ptr %5, align 4
  %62 = icmp eq i32 %61, 0
  br i1 %62, label %63, label %64

63:                                               ; preds = %60
  store i64 0, ptr %2, align 8
  store i32 1, ptr %12, align 4
  br label %73

64:                                               ; preds = %60
  %65 = load ptr, ptr %9, align 8
  %66 = getelementptr inbounds nuw %struct.PgStat_Backend, ptr %65, i32 0, i32 1
  store ptr %66, ptr %10, align 8
  %67 = load ptr, ptr %4, align 8
  %68 = load ptr, ptr %10, align 8
  %69 = load i32, ptr %5, align 4
  %70 = load ptr, ptr %9, align 8
  %71 = getelementptr inbounds nuw %struct.PgStat_Backend, ptr %70, i32 0, i32 0
  %72 = load i64, ptr %71, align 8
  call void @pg_stat_io_build_tuples(ptr noundef %67, ptr noundef %68, i32 noundef %69, i64 noundef %72)
  store i64 0, ptr %2, align 8
  store i32 1, ptr %12, align 4
  br label %73

73:                                               ; preds = %64, %63, %59, %49, %43, %27
  call void @llvm.lifetime.end.p0(i64 8, ptr %11) #10
  call void @llvm.lifetime.end.p0(i64 8, ptr %10) #10
  call void @llvm.lifetime.end.p0(i64 8, ptr %9) #10
  call void @llvm.lifetime.end.p0(i64 4, ptr %8) #10
  call void @llvm.lifetime.end.p0(i64 8, ptr %7) #10
  call void @llvm.lifetime.end.p0(i64 4, ptr %6) #10
  call void @llvm.lifetime.end.p0(i64 4, ptr %5) #10
  call void @llvm.lifetime.end.p0(i64 8, ptr %4) #10
  %74 = load i64, ptr %2, align 8
  ret i64 %74
}