; Function Attrs: nounwind uwtable
define dso_local noundef i64 @pg_stat_get_backend_io(ptr noundef %0) local_unnamed_addr #0 {
  tail call void @InitMaterializedSRF(ptr noundef %0, i32 noundef 0) #9
  %2 = getelementptr inbounds nuw i8, ptr %0, i64 16
  %3 = load ptr, ptr %2, align 8
  %4 = getelementptr inbounds nuw i8, ptr %0, i64 32
  %5 = load i64, ptr %4, align 8
  %6 = trunc i64 %5 to i32
  %7 = tail call ptr @BackendPidGetProc(i32 noundef %6) #9
  %.not = icmp eq ptr %7, null
  br i1 %.not, label %28, label %8

8:                                                ; preds = %1
  %9 = load ptr, ptr @ProcGlobal, align 8
  %10 = load ptr, ptr %9, align 8
  %11 = ptrtoint ptr %7 to i64
  %12 = ptrtoint ptr %10 to i64
  %13 = sub i64 %11, %12
  %14 = sdiv exact i64 %13, 832
  %15 = trunc i64 %14 to i32
  %16 = tail call ptr @pgstat_get_beentry_by_proc_number(i32 noundef %15) #9
  %.not22 = icmp eq ptr %16, null
  br i1 %.not22, label %28, label %17

17:                                               ; preds = %8
  %18 = tail call ptr @pgstat_fetch_stat_backend(i32 noundef %15) #9
  %.not23 = icmp eq ptr %18, null
  br i1 %.not23, label %28, label %19

19:                                               ; preds = %17
  %20 = getelementptr inbounds nuw i8, ptr %16, i64 8
  %21 = load i32, ptr %20, align 8
  %22 = getelementptr inbounds nuw i8, ptr %16, i64 4
  %23 = load i32, ptr %22, align 4
  %.not24 = icmp ne i32 %23, %6
  %24 = icmp eq i32 %21, 0
  %or.cond = select i1 %.not24, i1 true, i1 %24
  br i1 %or.cond, label %28, label %25

25:                                               ; preds = %19
  %26 = getelementptr inbounds nuw i8, ptr %18, i64 8
  %27 = load i64, ptr %18, align 8
  tail call fastcc void @pg_stat_io_build_tuples(ptr noundef %3, ptr noundef nonnull %26, i32 noundef %21, i64 noundef %27)
  br label %28

28:                                               ; preds = %19, %17, %8, %1, %25
  ret i64 0
}